target datalayout = "e-m:e-p270:32:32-p271:32:32-p272:64:64-i64:64-i128:128-f80:128-n8:16:32:64-S128"
target triple = "x86_64-pc-linux-gnu"

%struct.ProcSignalHeader = type { %struct.pg_atomic_uint64, [0 x %struct.ProcSignalSlot] }
%struct.pg_atomic_uint64 = type { i64 }
%struct.ProcSignalSlot = type { %struct.pg_atomic_uint32, i8, i32, [14 x i32], i8, %struct.pg_atomic_uint64, %struct.pg_atomic_uint32, %struct.ConditionVariable }
%struct.pg_atomic_uint32 = type { i32 }
%struct.ConditionVariable = type { i8, %struct.proclist_head }
%struct.proclist_head = type { i32, i32 }

@MaxBackends = external global i32, align 4
@ProcSignal = internal global ptr null, align 8
@.str.2 = private unnamed_addr constant [13 x i8] c"procsignal.c\00", align 1
@.str.5 = private unnamed_addr constant [69 x i8] c"waiting for all backends to process ProcSignalBarrier generation %lu\00", align 1
@__func__.WaitForProcSignalBarrier = private unnamed_addr constant [25 x i8] c"WaitForProcSignalBarrier\00", align 1
@.str.6 = private unnamed_addr constant [66 x i8] c"still waiting for backend with PID %d to accept ProcSignalBarrier\00", align 1
@.str.7 = private unnamed_addr constant [78 x i8] c"finished waiting for all backends to process ProcSignalBarrier generation %lu\00", align 1

; Function Attrs: inlinehint nounwind uwtable
define internal i32 @pg_atomic_read_u32_impl(ptr noundef %0) #3 {
  %2 = alloca ptr, align 8
  store ptr %0, ptr %2, align 8
  %3 = load ptr, ptr %2, align 8
  %4 = getelementptr inbounds nuw %struct.pg_atomic_uint32, ptr %3, i32 0, i32 0
  %5 = load volatile i32, ptr %4, align 4
  ret i32 %5
}

; Function Attrs: inlinehint nounwind uwtable
define internal i64 @pg_atomic_read_u64_impl(ptr noundef %0) #3 {
  %2 = alloca ptr, align 8
  store ptr %0, ptr %2, align 8
  %3 = load ptr, ptr %2, align 8
  %4 = getelementptr inbounds nuw %struct.pg_atomic_uint64, ptr %3, i32 0, i32 0
  %5 = load volatile i64, ptr %4, align 8
  ret i64 %5
}

; Function Attrs: inlinehint nounwind uwtable
define internal i32 @pg_atomic_read_u32(ptr noundef %0) #3 {
  %2 = alloca ptr, align 8
  store ptr %0, ptr %2, align 8
  %3 = load ptr, ptr %2, align 8
  %4 = call i32 @pg_atomic_read_u32_impl(ptr noundef %3)
  ret i32 %4
}

; Function Attrs: inlinehint nounwind uwtable
define internal i64 @pg_atomic_read_u64(ptr noundef %0) #3 {
  %2 = alloca ptr, align 8
  store ptr %0, ptr %2, align 8
  %3 = load ptr, ptr %2, align 8
  %4 = call i64 @pg_atomic_read_u64_impl(ptr noundef %3)
  ret i64 %4
}

; Function Attrs: nounwind uwtable
define dso_local void @WaitForProcSignalBarrier(i64 noundef %0) #0 {
  %2 = alloca i64, align 8
  %3 = alloca i32, align 4
  %4 = alloca ptr, align 8
  %5 = alloca i64, align 8
  store i64 %0, ptr %2, align 8
  br label %6

6:                                                ; preds = %1
  br i1 false, label %7, label %9

7:                                                ; preds = %6
  %8 = call zeroext i1 @errstart_cold(i32 noundef 14, ptr noundef null) #12
  br i1 %8, label %11, label %14

9:                                                ; preds = %6
  %10 = call zeroext i1 @errstart(i32 noundef 14, ptr noundef null)
  br i1 %10, label %11, label %14

11:                                               ; preds = %9, %7
  %12 = load i64, ptr %2, align 8
  %13 = call i32 (ptr, ...) @errmsg_internal(ptr noundef @.str.5, i64 noundef %12)
  call void @errfinish(ptr noundef @.str.2, i32 noundef 428, ptr noundef @__func__.WaitForProcSignalBarrier)
  br label %14

14:                                               ; preds = %11, %9, %7
  br label %15

15:                                               ; preds = %14
  call void @llvm.lifetime.start.p0(i64 4, ptr %3) #11
  %16 = load i32, ptr @MaxBackends, align 4
  %17 = add i32 %16, 6
  %18 = sub i32 %17, 1
  store i32 %18, ptr %3, align 4
  br label %19

19:                                               ; preds = %60, %15
  %20 = load i32, ptr %3, align 4
  %21 = icmp sge i32 %20, 0
  br i1 %21, label %23, label %22

22:                                               ; preds = %19
  call void @llvm.lifetime.end.p0(i64 4, ptr %3) #11
  br label %63

23:                                               ; preds = %19
  call void @llvm.lifetime.start.p0(i64 8, ptr %4) #11
  %24 = load ptr, ptr @ProcSignal, align 8
  %25 = getelementptr inbounds nuw %struct.ProcSignalHeader, ptr %24, i32 0, i32 1
  %26 = load i32, ptr %3, align 4
  %27 = sext i32 %26 to i64
  %28 = getelementptr inbounds [0 x %struct.ProcSignalSlot], ptr %25, i64 0, i64 %27
  store ptr %28, ptr %4, align 8
  call void @llvm.lifetime.start.p0(i64 8, ptr %5) #11
  %29 = load ptr, ptr %4, align 8
  %30 = getelementptr inbounds nuw %struct.ProcSignalSlot, ptr %29, i32 0, i32 5
  %31 = call i64 @pg_atomic_read_u64(ptr noundef %30)
  store i64 %31, ptr %5, align 8
  br label %32

32:                                               ; preds = %54, %23
  %33 = load i64, ptr %5, align 8
  %34 = load i64, ptr %2, align 8
  %35 = icmp ult i64 %33, %34
  br i1 %35, label %36, label %58

36:                                               ; preds = %32
  %37 = load ptr, ptr %4, align 8
  %38 = getelementptr inbounds nuw %struct.ProcSignalSlot, ptr %37, i32 0, i32 7
  %39 = call zeroext i1 @ConditionVariableTimedSleep(ptr noundef %38, i64 noundef 5000, i32 noundef 134217770)
  br i1 %39, label %40, label %54

40:                                               ; preds = %36
  br label %41

41:                                               ; preds = %40
  br i1 false, label %42, label %44

42:                                               ; preds = %41
  %43 = call zeroext i1 @errstart_cold(i32 noundef 15, ptr noundef null) #12
  br i1 %43, label %46, label %51

44:                                               ; preds = %41
  %45 = call zeroext i1 @errstart(i32 noundef 15, ptr noundef null)
  br i1 %45, label %46, label %51

46:                                               ; preds = %44, %42
  %47 = load ptr, ptr %4, align 8
  %48 = getelementptr inbounds nuw %struct.ProcSignalSlot, ptr %47, i32 0, i32 0
  %49 = call i32 @pg_atomic_read_u32(ptr noundef %48)
  %50 = call i32 (ptr, ...) @errmsg(ptr noundef @.str.6, i32 noundef %49)
  call void @errfinish(ptr noundef @.str.2, i32 noundef 449, ptr noundef @__func__.WaitForProcSignalBarrier)
  br label %51

51:                                               ; preds = %46, %44, %42
  br label %52

52:                                               ; preds = %51
  br label %53

53:                                               ; preds = %52
  br label %54

54:                                               ; preds = %53, %36
  %55 = load ptr, ptr %4, align 8
  %56 = getelementptr inbounds nuw %struct.ProcSignalSlot, ptr %55, i32 0, i32 5
  %57 = call i64 @pg_atomic_read_u64(ptr noundef %56)
  store i64 %57, ptr %5, align 8
  br label %32, !llvm.loop !25

58:                                               ; preds = %32
  %59 = call zeroext i1 @ConditionVariableCancelSleep()
  call void @llvm.lifetime.end.p0(i64 8, ptr %5) #11
  call void @llvm.lifetime.end.p0(i64 8, ptr %4) #11
  br label %60

60:                                               ; preds = %58
  %61 = load i32, ptr %3, align 4
  %62 = add i32 %61, -1
  store i32 %62, ptr %3, align 4
  br label %19, !llvm.loop !26

63:                                               ; preds = %22
  br label %64

64:                                               ; preds = %63
  br i1 false, label %65, label %67

65:                                               ; preds = %64
  %66 = call zeroext i1 @errstart_cold(i32 noundef 14, ptr noundef null) #12
  br i1 %66, label %69, label %72

67:                                               ; preds = %64
  %68 = call zeroext i1 @errstart(i32 noundef 14, ptr noundef null)
  br i1 %68, label %69, label %72

69:                                               ; preds = %67, %65
  %70 = load i64, ptr %2, align 8
  %71 = call i32 (ptr, ...) @errmsg_internal(ptr noundef @.str.7, i64 noundef %70)
  call void @errfinish(ptr noundef @.str.2, i32 noundef 458, ptr noundef @__func__.WaitForProcSignalBarrier)
  br label %72

72:                                               ; preds = %69, %67, %65
  br label %73

73:                                               ; preds = %72
  call void asm sideeffect "lock; addl $$0,0(%rsp)", "~{memory},~{cc},~{dirflag},~{fpsr},~{flags}"() #11, !srcloc !27
  ret void
}