; Function Attrs: nounwind uwtable
define dso_local void @WaitForProcSignalBarrier(i64 noundef %0) local_unnamed_addr #0 {
  %2 = tail call zeroext i1 @errstart(i32 noundef 14, ptr noundef null) #11
  br i1 %2, label %3, label %5

3:                                                ; preds = %1
  %4 = tail call i32 (ptr, ...) @errmsg_internal(ptr noundef nonnull @.str.5, i64 noundef %0) #11
  tail call void @errfinish(ptr noundef nonnull @.str.2, i32 noundef 428, ptr noundef nonnull @__func__.WaitForProcSignalBarrier) #11
  br label %5

5:                                                ; preds = %1, %3
  %6 = load i32, ptr @MaxBackends, align 4
  %7 = add i32 %6, 5
  %8 = icmp sgt i32 %7, -1
  br i1 %8, label %.lr.ph14.preheader, label %._crit_edge15

.lr.ph14.preheader:                               ; preds = %5
  %9 = zext nneg i32 %7 to i64
  br label %.lr.ph14

._crit_edge15:                                    ; preds = %._crit_edge, %5
  %10 = tail call zeroext i1 @errstart(i32 noundef 14, ptr noundef null) #11
  br i1 %10, label %28, label %30

.lr.ph14:                                         ; preds = %.lr.ph14.preheader, %._crit_edge
  %indvars.iv = phi i64 [ %9, %.lr.ph14.preheader ], [ %indvars.iv.next, %._crit_edge ]
  %11 = load ptr, ptr @ProcSignal, align 8
  %12 = getelementptr inbounds nuw i8, ptr %11, i64 8
  %13 = getelementptr inbounds nuw [0 x %struct.ProcSignalSlot], ptr %12, i64 0, i64 %indvars.iv
  %14 = getelementptr inbounds nuw i8, ptr %13, i64 72
  %.011 = load volatile i64, ptr %14, align 8
  %15 = icmp ult i64 %.011, %0
  br i1 %15, label %.lr.ph, label %._crit_edge

.lr.ph:                                           ; preds = %.lr.ph14
  %16 = getelementptr inbounds nuw i8, ptr %13, i64 84
  br label %17

17:                                               ; preds = %.lr.ph, %24
  %18 = tail call zeroext i1 @ConditionVariableTimedSleep(ptr noundef nonnull %16, i64 noundef 5000, i32 noundef 134217770) #11
  br i1 %18, label %19, label %24

19:                                               ; preds = %17
  %20 = tail call zeroext i1 @errstart(i32 noundef 15, ptr noundef null) #11
  br i1 %20, label %21, label %24

21:                                               ; preds = %19
  %22 = load volatile i32, ptr %13, align 4
  %23 = tail call i32 (ptr, ...) @errmsg(ptr noundef nonnull @.str.6, i32 noundef %22) #11
  tail call void @errfinish(ptr noundef nonnull @.str.2, i32 noundef 449, ptr noundef nonnull @__func__.WaitForProcSignalBarrier) #11
  br label %24

24:                                               ; preds = %19, %21, %17
  %.0 = load volatile i64, ptr %14, align 8
  %25 = icmp ult i64 %.0, %0
  br i1 %25, label %17, label %._crit_edge, !llvm.loop !24

._crit_edge:                                      ; preds = %24, %.lr.ph14
  %26 = tail call zeroext i1 @ConditionVariableCancelSleep() #11
  %indvars.iv.next = add nsw i64 %indvars.iv, -1
  %27 = icmp sgt i64 %indvars.iv, 0
  br i1 %27, label %.lr.ph14, label %._crit_edge15, !llvm.loop !25

28:                                               ; preds = %._crit_edge15
  %29 = tail call i32 (ptr, ...) @errmsg_internal(ptr noundef nonnull @.str.7, i64 noundef %0) #11
  tail call void @errfinish(ptr noundef nonnull @.str.2, i32 noundef 458, ptr noundef nonnull @__func__.WaitForProcSignalBarrier) #11
  br label %30

30:                                               ; preds = %._crit_edge15, %28
  tail call void asm sideeffect "lock; addl $$0,0(%rsp)", "~{memory},~{cc},~{dirflag},~{fpsr},~{flags}"() #11, !srcloc !26
  ret void
}